target datalayout = "e-m:e-p270:32:32-p271:32:32-p272:64:64-i64:64-i128:128-f80:128-n8:16:32:64-S128"
target triple = "x86_64-pc-linux-gnu"

@.str.33 = private unnamed_addr constant [67 x i8] c"\0AidasKrylovDemo_ls: Heat equation, serial example problem for IDA\0A\00", align 1
@.str.34 = private unnamed_addr constant [65 x i8] c"                   Discretized heat equation on 2D unit square.\0A\00", align 1
@.str.35 = private unnamed_addr constant [45 x i8] c"                   Zero boundary conditions,\00", align 1
@.str.36 = private unnamed_addr constant [33 x i8] c" polynomial initial conditions.\0A\00", align 1
@.str.37 = private unnamed_addr constant [44 x i8] c"                   Mesh dimensions: %d x %d\00", align 1
@.str.38 = private unnamed_addr constant [31 x i8] c"       Total system size: %d\0A\0A\00", align 1
@.str.39 = private unnamed_addr constant [46 x i8] c"Tolerance parameters:  rtol = %g   atol = %g\0A\00", align 1
@.str.40 = private unnamed_addr constant [57 x i8] c"Constraints set to force all solution components >= 0. \0A\00", align 1
@.str.41 = private unnamed_addr constant [64 x i8] c"Linear solver: SPGMR, preconditioner using diagonal elements. \0A\00", align 1
@.str.42 = private unnamed_addr constant [64 x i8] c"Linear solver: SPBCG, preconditioner using diagonal elements. \0A\00", align 1
@.str.43 = private unnamed_addr constant [66 x i8] c"Linear solver: SPTFQMR, preconditioner using diagonal elements. \0A\00", align 1

; Function Attrs: nounwind uwtable
define internal void @PrintHeader(double noundef %0, double noundef %1, i32 noundef %2) #0 {
  %4 = alloca double, align 8
  %5 = alloca double, align 8
  %6 = alloca i32, align 4
  store double %0, ptr %4, align 8, !tbaa !27
  store double %1, ptr %5, align 8, !tbaa !27
  store i32 %2, ptr %6, align 4, !tbaa !4
  %7 = call i32 (ptr, ...) @printf(ptr noundef @.str.33)
  %8 = call i32 (ptr, ...) @printf(ptr noundef @.str.34)
  %9 = call i32 (ptr, ...) @printf(ptr noundef @.str.35)
  %10 = call i32 (ptr, ...) @printf(ptr noundef @.str.36)
  %11 = call i32 (ptr, ...) @printf(ptr noundef @.str.37, i32 noundef 10, i32 noundef 10)
  %12 = call i32 (ptr, ...) @printf(ptr noundef @.str.38, i32 noundef 100)
  %13 = load double, ptr %4, align 8, !tbaa !27
  %14 = load double, ptr %5, align 8, !tbaa !27
  %15 = call i32 (ptr, ...) @printf(ptr noundef @.str.39, double noundef %13, double noundef %14)
  %16 = call i32 (ptr, ...) @printf(ptr noundef @.str.40)
  %17 = load i32, ptr %6, align 4, !tbaa !4
  switch i32 %17, label %24 [
    i32 0, label %18
    i32 1, label %20
    i32 2, label %22
  ]

18:                                               ; preds = %3
  %19 = call i32 (ptr, ...) @printf(ptr noundef @.str.41)
  br label %24

20:                                               ; preds = %3
  %21 = call i32 (ptr, ...) @printf(ptr noundef @.str.42)
  br label %24

22:                                               ; preds = %3
  %23 = call i32 (ptr, ...) @printf(ptr noundef @.str.43)
  br label %24

24:                                               ; preds = %3, %22, %20, %18
  ret void
}